(dp1
S'solverFull'
p2
S'hyper1Foam'
p3
sS'remark'
p4
S'No remark given'
p5
sS'casename'
p6
S'case'
p7
sS'solver'
p8
g3
sS'commandLine'
p9
g3
sS'hostname'
p10
S'mgt1'
p11
sS'lines'
p12
I0
sS'casefullname'
p13
S'/home/avdeev/case'
p14
sS'starttime'
p15
S'Sun Feb 22 21:43:12 2015'
p16
sS'logfile'
p17
S'./PyFoamRunner.hyper1Foam.logfile'
p18
s.